target datalayout = "e-m:e-p270:32:32-p271:32:32-p272:64:64-i64:64-i128:128-f80:128-n8:16:32:64-S128"
target triple = "x86_64-unknown-linux-gnu"

%"class.google::protobuf::internal::InternalMetadata" = type { i64 }
%"class.google::protobuf::internal::HasBits" = type { [1 x i32] }
%"class.google::protobuf::internal::CachedSize" = type { i32 }
%"struct.google::protobuf::internal::ArenaStringPtr" = type { %"class.google::protobuf::internal::TaggedStringPtr" }
%"class.google::protobuf::internal::TaggedStringPtr" = type { ptr }
%union.anon.7 = type { %"struct.google::protobuf::FeatureSet::Impl_" }
%"struct.google::protobuf::FeatureSet::Impl_" = type { %"class.google::protobuf::internal::ExtensionSet", %"class.google::protobuf::internal::HasBits", %"class.google::protobuf::internal::CachedSize", i32, i32, i32, i32, i32, i32 }
%"class.google::protobuf::internal::ExtensionSet" = type { ptr, i16, i16, %"union.google::protobuf::internal::ExtensionSet::AllocatedData" }
%"union.google::protobuf::internal::ExtensionSet::AllocatedData" = type { ptr }
%"class.google::protobuf::Message" = type { %"class.google::protobuf::MessageLite" }
%"class.google::protobuf::MessageLite" = type { ptr, %"class.google::protobuf::internal::InternalMetadata" }
%"class.google::protobuf::internal::RepeatedPtrFieldBase" = type { ptr, i32, i32, ptr }
%"class.google::protobuf::RepeatedPtrField.26" = type { %"class.google::protobuf::internal::RepeatedPtrFieldBase" }
%"class.google::protobuf::FeatureSet" = type { %"class.google::protobuf::Message", %union.anon.7 }
%"class.google::protobuf::MethodDescriptorProto" = type { %"class.google::protobuf::Message", %union.anon.52 }
%union.anon.52 = type { %"struct.google::protobuf::MethodDescriptorProto::Impl_" }
%"struct.google::protobuf::MethodDescriptorProto::Impl_" = type <{ %"class.google::protobuf::internal::HasBits", %"class.google::protobuf::internal::CachedSize", %"struct.google::protobuf::internal::ArenaStringPtr", %"struct.google::protobuf::internal::ArenaStringPtr", %"struct.google::protobuf::internal::ArenaStringPtr", ptr, i8, i8, [6 x i8] }>
%"class.google::protobuf::MethodOptions" = type { %"class.google::protobuf::Message", %union.anon.31 }
%union.anon.31 = type { %"struct.google::protobuf::MethodOptions::Impl_" }
%"struct.google::protobuf::MethodOptions::Impl_" = type { %"class.google::protobuf::internal::ExtensionSet", %"class.google::protobuf::internal::HasBits", %"class.google::protobuf::internal::CachedSize", %"class.google::protobuf::RepeatedPtrField.26", ptr, i8, i32 }

; Function Attrs: mustprogress nounwind uwtable
define linkonce_odr hidden noundef ptr @_ZN6google8protobuf10FeatureSet25internal_default_instanceEv() #5 comdat align 2 {
entry:
  ret ptr @_ZN6google8protobuf29_FeatureSet_default_instance_E
}

; Function Attrs: mustprogress uwtable
define noundef zeroext i1 @_ZNK6google8protobuf10FeatureSet13IsInitializedEv(ptr noundef nonnull align 8 dereferenceable(72) %this) unnamed_addr #4 align 2 {
entry:
  %retval = alloca i1, align 1
  %this.addr = alloca ptr, align 8
  store ptr %this, ptr %this.addr, align 8
  %this1 = load ptr, ptr %this.addr, align 8
  %0 = getelementptr inbounds %"class.google::protobuf::FeatureSet", ptr %this1, i32 0, i32 1
  %_extensions_ = getelementptr inbounds %"struct.google::protobuf::FeatureSet::Impl_", ptr %0, i32 0, i32 0
  %call = call noundef ptr @_ZN6google8protobuf10FeatureSet25internal_default_instanceEv()
  %call2 = call noundef zeroext i1 @_ZNK6google8protobuf8internal12ExtensionSet13IsInitializedEPKNS0_11MessageLiteE(ptr noundef nonnull align 8 dereferenceable(24) %_extensions_, ptr noundef %call)
  br i1 %call2, label %if.end, label %if.then

if.then:                                          ; preds = %entry
  store i1 false, ptr %retval, align 1
  br label %return

if.end:                                           ; preds = %entry
  store i1 true, ptr %retval, align 1
  br label %return

return:                                           ; preds = %if.end, %if.then
  %1 = load i1, ptr %retval, align 1
  ret i1 %1
}

; Function Attrs: mustprogress nounwind uwtable
define linkonce_odr hidden noundef nonnull align 8 dereferenceable(24) ptr @_ZNK6google8protobuf13MethodOptions30_internal_uninterpreted_optionEv(ptr noundef nonnull align 8 dereferenceable(88) %this) #5 comdat align 2 {
entry:
  %this.addr = alloca ptr, align 8
  store ptr %this, ptr %this.addr, align 8
  %this1 = load ptr, ptr %this.addr, align 8
  %0 = getelementptr inbounds %"class.google::protobuf::MethodOptions", ptr %this1, i32 0, i32 1
  %uninterpreted_option_ = getelementptr inbounds %"struct.google::protobuf::MethodOptions::Impl_", ptr %0, i32 0, i32 3
  ret ptr %uninterpreted_option_
}

; Function Attrs: mustprogress nounwind uwtable
define linkonce_odr hidden noundef ptr @_ZN6google8protobuf13MethodOptions25internal_default_instanceEv() #5 comdat align 2 {
entry:
  ret ptr @_ZN6google8protobuf32_MethodOptions_default_instance_E
}

; Function Attrs: mustprogress uwtable
define noundef zeroext i1 @_ZNK6google8protobuf13MethodOptions13IsInitializedEv(ptr noundef nonnull align 8 dereferenceable(88) %this) unnamed_addr #4 align 2 {
entry:
  %this.addr.i = alloca ptr, align 8
  %index.addr.i = alloca i32, align 4
  %retval = alloca i1, align 1
  %this.addr = alloca ptr, align 8
  store ptr %this, ptr %this.addr, align 8
  %this1 = load ptr, ptr %this.addr, align 8
  %0 = getelementptr inbounds %"class.google::protobuf::MethodOptions", ptr %this1, i32 0, i32 1
  %_extensions_ = getelementptr inbounds %"struct.google::protobuf::MethodOptions::Impl_", ptr %0, i32 0, i32 0
  %call = call noundef ptr @_ZN6google8protobuf13MethodOptions25internal_default_instanceEv()
  %call2 = call noundef zeroext i1 @_ZNK6google8protobuf8internal12ExtensionSet13IsInitializedEPKNS0_11MessageLiteE(ptr noundef nonnull align 8 dereferenceable(24) %_extensions_, ptr noundef %call)
  br i1 %call2, label %if.end, label %if.then

if.then:                                          ; preds = %entry
  store i1 false, ptr %retval, align 1
  br label %return

if.end:                                           ; preds = %entry
  %call3 = call noundef nonnull align 8 dereferenceable(24) ptr @_ZNK6google8protobuf13MethodOptions30_internal_uninterpreted_optionEv(ptr noundef nonnull align 8 dereferenceable(88) %this1)
  %call4 = call noundef zeroext i1 @_ZN6google8protobuf8internal17AllAreInitializedINS0_19UninterpretedOptionEEEbRKNS0_16RepeatedPtrFieldIT_EE(ptr noundef nonnull align 8 dereferenceable(24) %call3)
  br i1 %call4, label %if.end6, label %if.then5

if.then5:                                         ; preds = %if.end
  store i1 false, ptr %retval, align 1
  br label %return

if.end6:                                          ; preds = %if.end
  %1 = getelementptr inbounds %"class.google::protobuf::MethodOptions", ptr %this1, i32 0, i32 1
  %_has_bits_ = getelementptr inbounds %"struct.google::protobuf::MethodOptions::Impl_", ptr %1, i32 0, i32 1
  store ptr %_has_bits_, ptr %this.addr.i, align 8
  store i32 0, ptr %index.addr.i, align 4
  %this1.i = load ptr, ptr %this.addr.i, align 8
  %2 = load i32, ptr %index.addr.i, align 4
  %idxprom.i = sext i32 %2 to i64
  %arrayidx.i = getelementptr inbounds [1 x i32], ptr %this1.i, i64 0, i64 %idxprom.i
  %3 = load i32, ptr %arrayidx.i, align 4
  %and = and i32 %3, 1
  %cmp = icmp ne i32 %and, 0
  br i1 %cmp, label %if.then8, label %if.end12

if.then8:                                         ; preds = %if.end6
  %4 = getelementptr inbounds %"class.google::protobuf::MethodOptions", ptr %this1, i32 0, i32 1
  %features_ = getelementptr inbounds %"struct.google::protobuf::MethodOptions::Impl_", ptr %4, i32 0, i32 4
  %5 = load ptr, ptr %features_, align 8
  %call9 = call noundef zeroext i1 @_ZNK6google8protobuf10FeatureSet13IsInitializedEv(ptr noundef nonnull align 8 dereferenceable(72) %5)
  br i1 %call9, label %if.end11, label %if.then10

if.then10:                                        ; preds = %if.then8
  store i1 false, ptr %retval, align 1
  br label %return

if.end11:                                         ; preds = %if.then8
  br label %if.end12

if.end12:                                         ; preds = %if.end11, %if.end6
  store i1 true, ptr %retval, align 1
  br label %return

return:                                           ; preds = %if.end12, %if.then10, %if.then5, %if.then
  %6 = load i1, ptr %retval, align 1
  ret i1 %6
}

; Function Attrs: mustprogress uwtable
define noundef zeroext i1 @_ZNK6google8protobuf21MethodDescriptorProto13IsInitializedEv(ptr noundef nonnull align 8 dereferenceable(64) %this) unnamed_addr #4 align 2 {
entry:
  %this.addr.i = alloca ptr, align 8
  %index.addr.i = alloca i32, align 4
  %retval = alloca i1, align 1
  %this.addr = alloca ptr, align 8
  store ptr %this, ptr %this.addr, align 8
  %this1 = load ptr, ptr %this.addr, align 8
  %0 = getelementptr inbounds %"class.google::protobuf::MethodDescriptorProto", ptr %this1, i32 0, i32 1
  %_has_bits_ = getelementptr inbounds %"struct.google::protobuf::MethodDescriptorProto::Impl_", ptr %0, i32 0, i32 0
  store ptr %_has_bits_, ptr %this.addr.i, align 8
  store i32 0, ptr %index.addr.i, align 4
  %this1.i = load ptr, ptr %this.addr.i, align 8
  %1 = load i32, ptr %index.addr.i, align 4
  %idxprom.i = sext i32 %1 to i64
  %arrayidx.i = getelementptr inbounds [1 x i32], ptr %this1.i, i64 0, i64 %idxprom.i
  %2 = load i32, ptr %arrayidx.i, align 4
  %and = and i32 %2, 8
  %cmp = icmp ne i32 %and, 0
  br i1 %cmp, label %if.then, label %if.end4

if.then:                                          ; preds = %entry
  %3 = getelementptr inbounds %"class.google::protobuf::MethodDescriptorProto", ptr %this1, i32 0, i32 1
  %options_ = getelementptr inbounds %"struct.google::protobuf::MethodDescriptorProto::Impl_", ptr %3, i32 0, i32 5
  %4 = load ptr, ptr %options_, align 8
  %call2 = call noundef zeroext i1 @_ZNK6google8protobuf13MethodOptions13IsInitializedEv(ptr noundef nonnull align 8 dereferenceable(88) %4)
  br i1 %call2, label %if.end, label %if.then3

if.then3:                                         ; preds = %if.then
  store i1 false, ptr %retval, align 1
  br label %return

if.end:                                           ; preds = %if.then
  br label %if.end4

if.end4:                                          ; preds = %if.end, %entry
  store i1 true, ptr %retval, align 1
  br label %return

return:                                           ; preds = %if.end4, %if.then3
  %5 = load i1, ptr %retval, align 1
  ret i1 %5
}